(dp1
S'OriginalConfig'
p2
ccopy_reg
_reconstructor
p3
(cWMCore.Configuration
Configuration
p4
c__builtin__
object
p5
NtRp6
(dp7
S'Site'
p8
g3
(cWMCore.Configuration
ConfigSection
p9
g5
NtRp10
(dp11
S'_internal_documentation'
p12
S''
sS'_internal_settings'
p13
c__builtin__
set
p14
((lp15
S'storageSite'
p16
atRp17
sS'_internal_name'
p18
g8
sS'_internal_docstrings'
p19
(dp20
sS'_internal_children'
p21
g14
((ltRp22
sg16
S'T2_CH_CERN'
p23
sS'_internal_parent_ref'
p24
NsbsS'_internal_sections'
p25
(lp26
S'General'
p27
aS'JobType'
p28
aS'Data'
p29
ag8
asg27
g3
(g9
g5
NtRp30
(dp31
g12
S''
sg13
g14
((lp32
S'transferOutputs'
p33
aS'workArea'
p34
aS'requestName'
p35
atRp36
sg18
g27
sg19
(dp37
sg33
I01
sg21
g14
((ltRp38
sg35
S'MC13TeV_TTJets'
p39
sg24
Nsg34
S'grid'
p40
sbsS'_internal_webapps'
p41
(lp42
sS'_internal_components'
p43
(lp44
sg29
g3
(g9
g5
NtRp45
(dp46
S'inputDataset'
p47
S'/TT_TuneCUETP8M1_13TeV-powheg-pythia8/RunIIFall15MiniAODv2-PU25nsData2015v1_76X_mcRun2_asymptotic_v12_ext3-v1/MINIAODSIM'
p48
sS'publication'
p49
I01
sS'splitting'
p50
S'FileBased'
p51
sS'unitsPerJob'
p52
I2
sg12
S''
sg13
g14
((lp53
g47
ag49
ag52
aS'ignoreLocality'
p54
aS'inputDBS'
p55
ag50
aS'outLFNDirBase'
p56
atRp57
sg54
I00
sg18
g29
sg55
S'global'
p58
sg19
(dp59
sg21
g14
((ltRp60
sg56
S'/store/user/byates/402de72/'
p61
sg24
Nsbsg28
g3
(g9
g5
NtRp62
(dp63
S'pyCfgParams'
p64
(lp65
S'runOnData=False'
p66
asg12
S''
sg13
g14
((lp67
S'psetName'
p68
aS'pluginName'
p69
aS'inputFiles'
p70
ag64
aS'disableAutomaticOutputCollection'
p71
atRp72
sg18
g28
sg19
(dp73
sg69
S'Analysis'
p74
sg21
g14
((ltRp75
sg68
S'/afs/cern.ch/user/b/byates/CMSSW_7_6_3/src/TopLJets2015/TopAnalysis/test/runMiniAnalyzer_cfg.py'
p76
sg24
Nsg70
(lp77
S'Fall15_25nsV2_MC.db'
p78
asg71
I00
sbsbsS'voGroup'
p79
S''
sS'Server'
p80
S'cmsweb.cern.ch'
p81
sS'instance'
p82
S'prod'
p83
sS'RequestName'
p84
S'160427_202538:byates_crab_MC13TeV_TTJets'
p85
sS'voRole'
p86
S'NULL'
p87
sS'Port'
p88
S''
s.